target datalayout = "e-m:e-p270:32:32-p271:32:32-p272:64:64-i64:64-i128:128-f80:128-n8:16:32:64-S128"
target triple = "x86_64-pc-linux-gnu"

%struct.RangeCoder = type { ptr, ptr, i32, i32, i32 }
%struct.Model = type { [16 x i32], [16 x i32], i32, i32, i32, i32, i32 }

; Function Attrs: nounwind uwtable
define internal void @model_update(ptr noundef %0, i32 noundef %1) #1 {
  %3 = alloca ptr, align 8
  %4 = alloca i32, align 4
  %5 = alloca i32, align 4
  %6 = alloca i32, align 4
  %7 = alloca i32, align 4
  %8 = alloca i32, align 4
  store ptr %0, ptr %3, align 8, !tbaa !74
  store i32 %1, ptr %4, align 4, !tbaa !38
  call void @llvm.lifetime.start.p0(i64 4, ptr %5) #8
  call void @llvm.lifetime.start.p0(i64 4, ptr %6) #8
  store i32 0, ptr %6, align 4, !tbaa !38
  call void @llvm.lifetime.start.p0(i64 4, ptr %7) #8
  %9 = load ptr, ptr %3, align 8, !tbaa !74
  %10 = getelementptr inbounds nuw %struct.Model, ptr %9, i32 0, i32 0
  %11 = load i32, ptr %4, align 4, !tbaa !38
  %12 = sext i32 %11 to i64
  %13 = getelementptr inbounds [16 x i32], ptr %10, i64 0, i64 %12
  %14 = load i32, ptr %13, align 4, !tbaa !38
  %15 = add nsw i32 %14, 1
  store i32 %15, ptr %13, align 4, !tbaa !38
  %16 = load ptr, ptr %3, align 8, !tbaa !74
  %17 = getelementptr inbounds nuw %struct.Model, ptr %16, i32 0, i32 6
  %18 = load i32, ptr %17, align 4, !tbaa !85
  %19 = add nsw i32 %18, -1
  store i32 %19, ptr %17, align 4, !tbaa !85
  %20 = load ptr, ptr %3, align 8, !tbaa !74
  %21 = getelementptr inbounds nuw %struct.Model, ptr %20, i32 0, i32 6
  %22 = load i32, ptr %21, align 4, !tbaa !85
  %23 = icmp ne i32 %22, 0
  br i1 %23, label %24, label %25

24:                                               ; preds = %2
  store i32 1, ptr %8, align 4
  br label %133

25:                                               ; preds = %2
  %26 = load ptr, ptr %3, align 8, !tbaa !74
  %27 = getelementptr inbounds nuw %struct.Model, ptr %26, i32 0, i32 4
  %28 = load i32, ptr %27, align 4, !tbaa !84
  %29 = load ptr, ptr %3, align 8, !tbaa !74
  %30 = getelementptr inbounds nuw %struct.Model, ptr %29, i32 0, i32 3
  %31 = load i32, ptr %30, align 4, !tbaa !82
  %32 = add nsw i32 %31, %28
  store i32 %32, ptr %30, align 4, !tbaa !82
  %33 = load ptr, ptr %3, align 8, !tbaa !74
  %34 = getelementptr inbounds nuw %struct.Model, ptr %33, i32 0, i32 3
  %35 = load i32, ptr %34, align 4, !tbaa !82
  %36 = icmp sgt i32 %35, 32768
  br i1 %36, label %37, label %74

37:                                               ; preds = %25
  %38 = load ptr, ptr %3, align 8, !tbaa !74
  %39 = getelementptr inbounds nuw %struct.Model, ptr %38, i32 0, i32 3
  store i32 0, ptr %39, align 4, !tbaa !82
  store i32 0, ptr %5, align 4, !tbaa !38
  br label %40

40:                                               ; preds = %70, %37
  %41 = load i32, ptr %5, align 4, !tbaa !38
  %42 = load ptr, ptr %3, align 8, !tbaa !74
  %43 = getelementptr inbounds nuw %struct.Model, ptr %42, i32 0, i32 2
  %44 = load i32, ptr %43, align 4, !tbaa !76
  %45 = icmp slt i32 %41, %44
  br i1 %45, label %46, label %73

46:                                               ; preds = %40
  %47 = load ptr, ptr %3, align 8, !tbaa !74
  %48 = getelementptr inbounds nuw %struct.Model, ptr %47, i32 0, i32 0
  %49 = load i32, ptr %5, align 4, !tbaa !38
  %50 = sext i32 %49 to i64
  %51 = getelementptr inbounds [16 x i32], ptr %48, i64 0, i64 %50
  %52 = load i32, ptr %51, align 4, !tbaa !38
  %53 = add nsw i32 %52, 1
  %54 = ashr i32 %53, 1
  %55 = load ptr, ptr %3, align 8, !tbaa !74
  %56 = getelementptr inbounds nuw %struct.Model, ptr %55, i32 0, i32 0
  %57 = load i32, ptr %5, align 4, !tbaa !38
  %58 = sext i32 %57 to i64
  %59 = getelementptr inbounds [16 x i32], ptr %56, i64 0, i64 %58
  store i32 %54, ptr %59, align 4, !tbaa !38
  %60 = load ptr, ptr %3, align 8, !tbaa !74
  %61 = getelementptr inbounds nuw %struct.Model, ptr %60, i32 0, i32 0
  %62 = load i32, ptr %5, align 4, !tbaa !38
  %63 = sext i32 %62 to i64
  %64 = getelementptr inbounds [16 x i32], ptr %61, i64 0, i64 %63
  %65 = load i32, ptr %64, align 4, !tbaa !38
  %66 = load ptr, ptr %3, align 8, !tbaa !74
  %67 = getelementptr inbounds nuw %struct.Model, ptr %66, i32 0, i32 3
  %68 = load i32, ptr %67, align 4, !tbaa !82
  %69 = add nsw i32 %68, %65
  store i32 %69, ptr %67, align 4, !tbaa !82
  br label %70

70:                                               ; preds = %46
  %71 = load i32, ptr %5, align 4, !tbaa !38
  %72 = add nsw i32 %71, 1
  store i32 %72, ptr %5, align 4, !tbaa !38
  br label %40, !llvm.loop !86

73:                                               ; preds = %40
  br label %74

74:                                               ; preds = %73, %25
  %75 = load ptr, ptr %3, align 8, !tbaa !74
  %76 = getelementptr inbounds nuw %struct.Model, ptr %75, i32 0, i32 3
  %77 = load i32, ptr %76, align 4, !tbaa !82
  %78 = udiv i32 -2147483648, %77
  store i32 %78, ptr %7, align 4, !tbaa !38
  store i32 0, ptr %5, align 4, !tbaa !38
  br label %79

79:                                               ; preds = %103, %74
  %80 = load i32, ptr %5, align 4, !tbaa !38
  %81 = load ptr, ptr %3, align 8, !tbaa !74
  %82 = getelementptr inbounds nuw %struct.Model, ptr %81, i32 0, i32 2
  %83 = load i32, ptr %82, align 4, !tbaa !76
  %84 = icmp slt i32 %80, %83
  br i1 %84, label %85, label %106

85:                                               ; preds = %79
  %86 = load i32, ptr %6, align 4, !tbaa !38
  %87 = load i32, ptr %7, align 4, !tbaa !38
  %88 = mul i32 %86, %87
  %89 = lshr i32 %88, 16
  %90 = load ptr, ptr %3, align 8, !tbaa !74
  %91 = getelementptr inbounds nuw %struct.Model, ptr %90, i32 0, i32 1
  %92 = load i32, ptr %5, align 4, !tbaa !38
  %93 = sext i32 %92 to i64
  %94 = getelementptr inbounds [16 x i32], ptr %91, i64 0, i64 %93
  store i32 %89, ptr %94, align 4, !tbaa !38
  %95 = load ptr, ptr %3, align 8, !tbaa !74
  %96 = getelementptr inbounds nuw %struct.Model, ptr %95, i32 0, i32 0
  %97 = load i32, ptr %5, align 4, !tbaa !38
  %98 = sext i32 %97 to i64
  %99 = getelementptr inbounds [16 x i32], ptr %96, i64 0, i64 %98
  %100 = load i32, ptr %99, align 4, !tbaa !38
  %101 = load i32, ptr %6, align 4, !tbaa !38
  %102 = add nsw i32 %101, %100
  store i32 %102, ptr %6, align 4, !tbaa !38
  br label %103

103:                                              ; preds = %85
  %104 = load i32, ptr %5, align 4, !tbaa !38
  %105 = add nsw i32 %104, 1
  store i32 %105, ptr %5, align 4, !tbaa !38
  br label %79, !llvm.loop !87

106:                                              ; preds = %79
  %107 = load ptr, ptr %3, align 8, !tbaa !74
  %108 = getelementptr inbounds nuw %struct.Model, ptr %107, i32 0, i32 4
  %109 = load i32, ptr %108, align 4, !tbaa !84
  %110 = mul nsw i32 %109, 5
  %111 = ashr i32 %110, 2
  %112 = load ptr, ptr %3, align 8, !tbaa !74
  %113 = getelementptr inbounds nuw %struct.Model, ptr %112, i32 0, i32 4
  store i32 %111, ptr %113, align 4, !tbaa !84
  %114 = load ptr, ptr %3, align 8, !tbaa !74
  %115 = getelementptr inbounds nuw %struct.Model, ptr %114, i32 0, i32 4
  %116 = load i32, ptr %115, align 4, !tbaa !84
  %117 = load ptr, ptr %3, align 8, !tbaa !74
  %118 = getelementptr inbounds nuw %struct.Model, ptr %117, i32 0, i32 5
  %119 = load i32, ptr %118, align 4, !tbaa !77
  %120 = icmp sgt i32 %116, %119
  br i1 %120, label %121, label %127

121:                                              ; preds = %106
  %122 = load ptr, ptr %3, align 8, !tbaa !74
  %123 = getelementptr inbounds nuw %struct.Model, ptr %122, i32 0, i32 5
  %124 = load i32, ptr %123, align 4, !tbaa !77
  %125 = load ptr, ptr %3, align 8, !tbaa !74
  %126 = getelementptr inbounds nuw %struct.Model, ptr %125, i32 0, i32 4
  store i32 %124, ptr %126, align 4, !tbaa !84
  br label %127

127:                                              ; preds = %121, %106
  %128 = load ptr, ptr %3, align 8, !tbaa !74
  %129 = getelementptr inbounds nuw %struct.Model, ptr %128, i32 0, i32 4
  %130 = load i32, ptr %129, align 4, !tbaa !84
  %131 = load ptr, ptr %3, align 8, !tbaa !74
  %132 = getelementptr inbounds nuw %struct.Model, ptr %131, i32 0, i32 6
  store i32 %130, ptr %132, align 4, !tbaa !85
  store i32 0, ptr %8, align 4
  br label %133

133:                                              ; preds = %127, %24
  call void @llvm.lifetime.end.p0(i64 4, ptr %7) #8
  call void @llvm.lifetime.end.p0(i64 4, ptr %6) #8
  call void @llvm.lifetime.end.p0(i64 4, ptr %5) #8
  %134 = load i32, ptr %8, align 4
  switch i32 %134, label %136 [
    i32 0, label %135
    i32 1, label %135
  ]

135:                                              ; preds = %133, %133
  ret void

136:                                              ; preds = %133
  unreachable
}

; Function Attrs: nounwind uwtable
define internal void @rac_normalise(ptr noundef %0) #1 {
  %2 = alloca ptr, align 8
  store ptr %0, ptr %2, align 8, !tbaa !58
  br label %3

3:                                                ; preds = %60, %1
  %4 = load ptr, ptr %2, align 8, !tbaa !58
  %5 = getelementptr inbounds nuw %struct.RangeCoder, ptr %4, i32 0, i32 2
  %6 = load i32, ptr %5, align 8, !tbaa !118
  %7 = shl i32 %6, 8
  store i32 %7, ptr %5, align 8, !tbaa !118
  %8 = load ptr, ptr %2, align 8, !tbaa !58
  %9 = getelementptr inbounds nuw %struct.RangeCoder, ptr %8, i32 0, i32 3
  %10 = load i32, ptr %9, align 4, !tbaa !115
  %11 = shl i32 %10, 8
  store i32 %11, ptr %9, align 4, !tbaa !115
  %12 = load ptr, ptr %2, align 8, !tbaa !58
  %13 = getelementptr inbounds nuw %struct.RangeCoder, ptr %12, i32 0, i32 0
  %14 = load ptr, ptr %13, align 8, !tbaa !113
  %15 = load ptr, ptr %2, align 8, !tbaa !58
  %16 = getelementptr inbounds nuw %struct.RangeCoder, ptr %15, i32 0, i32 1
  %17 = load ptr, ptr %16, align 8, !tbaa !114
  %18 = icmp ult ptr %14, %17
  br i1 %18, label %19, label %30

19:                                               ; preds = %3
  %20 = load ptr, ptr %2, align 8, !tbaa !58
  %21 = getelementptr inbounds nuw %struct.RangeCoder, ptr %20, i32 0, i32 0
  %22 = load ptr, ptr %21, align 8, !tbaa !113
  %23 = getelementptr inbounds nuw i8, ptr %22, i32 1
  store ptr %23, ptr %21, align 8, !tbaa !113
  %24 = load i8, ptr %22, align 1, !tbaa !116
  %25 = zext i8 %24 to i32
  %26 = load ptr, ptr %2, align 8, !tbaa !58
  %27 = getelementptr inbounds nuw %struct.RangeCoder, ptr %26, i32 0, i32 3
  %28 = load i32, ptr %27, align 4, !tbaa !115
  %29 = or i32 %28, %25
  store i32 %29, ptr %27, align 4, !tbaa !115
  br label %41

30:                                               ; preds = %3
  %31 = load ptr, ptr %2, align 8, !tbaa !58
  %32 = getelementptr inbounds nuw %struct.RangeCoder, ptr %31, i32 0, i32 3
  %33 = load i32, ptr %32, align 4, !tbaa !115
  %34 = icmp ne i32 %33, 0
  br i1 %34, label %40, label %35

35:                                               ; preds = %30
  %36 = load ptr, ptr %2, align 8, !tbaa !58
  %37 = getelementptr inbounds nuw %struct.RangeCoder, ptr %36, i32 0, i32 4
  store i32 1, ptr %37, align 8, !tbaa !66
  %38 = load ptr, ptr %2, align 8, !tbaa !58
  %39 = getelementptr inbounds nuw %struct.RangeCoder, ptr %38, i32 0, i32 3
  store i32 1, ptr %39, align 4, !tbaa !115
  br label %40

40:                                               ; preds = %35, %30
  br label %41

41:                                               ; preds = %40, %19
  %42 = load ptr, ptr %2, align 8, !tbaa !58
  %43 = getelementptr inbounds nuw %struct.RangeCoder, ptr %42, i32 0, i32 3
  %44 = load i32, ptr %43, align 4, !tbaa !115
  %45 = load ptr, ptr %2, align 8, !tbaa !58
  %46 = getelementptr inbounds nuw %struct.RangeCoder, ptr %45, i32 0, i32 2
  %47 = load i32, ptr %46, align 8, !tbaa !118
  %48 = icmp ugt i32 %44, %47
  br i1 %48, label %49, label %54

49:                                               ; preds = %41
  %50 = load ptr, ptr %2, align 8, !tbaa !58
  %51 = getelementptr inbounds nuw %struct.RangeCoder, ptr %50, i32 0, i32 4
  store i32 1, ptr %51, align 8, !tbaa !66
  %52 = load ptr, ptr %2, align 8, !tbaa !58
  %53 = getelementptr inbounds nuw %struct.RangeCoder, ptr %52, i32 0, i32 3
  store i32 1, ptr %53, align 4, !tbaa !115
  br label %54

54:                                               ; preds = %49, %41
  %55 = load ptr, ptr %2, align 8, !tbaa !58
  %56 = getelementptr inbounds nuw %struct.RangeCoder, ptr %55, i32 0, i32 2
  %57 = load i32, ptr %56, align 8, !tbaa !118
  %58 = icmp uge i32 %57, 16777216
  br i1 %58, label %59, label %60

59:                                               ; preds = %54
  ret void

60:                                               ; preds = %54
  br label %3
}

; Function Attrs: nounwind uwtable
define internal i32 @rac_get_model_sym(ptr noundef %0, ptr noundef %1) #1 {
  %3 = alloca ptr, align 8
  %4 = alloca ptr, align 8
  %5 = alloca i32, align 4
  %6 = alloca i32, align 4
  %7 = alloca i32, align 4
  %8 = alloca i32, align 4
  %9 = alloca i32, align 4
  %10 = alloca i32, align 4
  store ptr %0, ptr %3, align 8, !tbaa !58
  store ptr %1, ptr %4, align 8, !tbaa !74
  call void @llvm.lifetime.start.p0(i64 4, ptr %5) #8
  call void @llvm.lifetime.start.p0(i64 4, ptr %6) #8
  call void @llvm.lifetime.start.p0(i64 4, ptr %7) #8
  call void @llvm.lifetime.start.p0(i64 4, ptr %8) #8
  call void @llvm.lifetime.start.p0(i64 4, ptr %9) #8
  call void @llvm.lifetime.start.p0(i64 4, ptr %10) #8
  store i32 0, ptr %8, align 4, !tbaa !38
  %11 = load ptr, ptr %3, align 8, !tbaa !58
  %12 = getelementptr inbounds nuw %struct.RangeCoder, ptr %11, i32 0, i32 2
  %13 = load i32, ptr %12, align 8, !tbaa !118
  store i32 %13, ptr %9, align 4, !tbaa !38
  %14 = load ptr, ptr %3, align 8, !tbaa !58
  %15 = getelementptr inbounds nuw %struct.RangeCoder, ptr %14, i32 0, i32 2
  %16 = load i32, ptr %15, align 8, !tbaa !118
  %17 = lshr i32 %16, 15
  store i32 %17, ptr %15, align 8, !tbaa !118
  store i32 0, ptr %5, align 4, !tbaa !38
  %18 = load ptr, ptr %4, align 8, !tbaa !74
  %19 = getelementptr inbounds nuw %struct.Model, ptr %18, i32 0, i32 2
  %20 = load i32, ptr %19, align 4, !tbaa !76
  %21 = ashr i32 %20, 1
  store i32 %21, ptr %6, align 4, !tbaa !38
  %22 = load ptr, ptr %4, align 8, !tbaa !74
  %23 = getelementptr inbounds nuw %struct.Model, ptr %22, i32 0, i32 2
  %24 = load i32, ptr %23, align 4, !tbaa !76
  store i32 %24, ptr %7, align 4, !tbaa !38
  br label %25

25:                                               ; preds = %52, %2
  %26 = load ptr, ptr %4, align 8, !tbaa !74
  %27 = getelementptr inbounds nuw %struct.Model, ptr %26, i32 0, i32 1
  %28 = load i32, ptr %6, align 4, !tbaa !38
  %29 = sext i32 %28 to i64
  %30 = getelementptr inbounds [16 x i32], ptr %27, i64 0, i64 %29
  %31 = load i32, ptr %30, align 4, !tbaa !38
  %32 = load ptr, ptr %3, align 8, !tbaa !58
  %33 = getelementptr inbounds nuw %struct.RangeCoder, ptr %32, i32 0, i32 2
  %34 = load i32, ptr %33, align 8, !tbaa !118
  %35 = mul i32 %31, %34
  store i32 %35, ptr %10, align 4, !tbaa !38
  %36 = load i32, ptr %10, align 4, !tbaa !38
  %37 = load ptr, ptr %3, align 8, !tbaa !58
  %38 = getelementptr inbounds nuw %struct.RangeCoder, ptr %37, i32 0, i32 3
  %39 = load i32, ptr %38, align 4, !tbaa !115
  %40 = icmp ule i32 %36, %39
  br i1 %40, label %41, label %44

41:                                               ; preds = %25
  %42 = load i32, ptr %6, align 4, !tbaa !38
  store i32 %42, ptr %5, align 4, !tbaa !38
  %43 = load i32, ptr %10, align 4, !tbaa !38
  store i32 %43, ptr %8, align 4, !tbaa !38
  br label %47

44:                                               ; preds = %25
  %45 = load i32, ptr %6, align 4, !tbaa !38
  store i32 %45, ptr %7, align 4, !tbaa !38
  %46 = load i32, ptr %10, align 4, !tbaa !38
  store i32 %46, ptr %9, align 4, !tbaa !38
  br label %47

47:                                               ; preds = %44, %41
  %48 = load i32, ptr %7, align 4, !tbaa !38
  %49 = load i32, ptr %5, align 4, !tbaa !38
  %50 = add nsw i32 %48, %49
  %51 = ashr i32 %50, 1
  store i32 %51, ptr %6, align 4, !tbaa !38
  br label %52

52:                                               ; preds = %47
  %53 = load i32, ptr %6, align 4, !tbaa !38
  %54 = load i32, ptr %5, align 4, !tbaa !38
  %55 = icmp ne i32 %53, %54
  br i1 %55, label %25, label %56, !llvm.loop !152

56:                                               ; preds = %52
  %57 = load i32, ptr %8, align 4, !tbaa !38
  %58 = load ptr, ptr %3, align 8, !tbaa !58
  %59 = getelementptr inbounds nuw %struct.RangeCoder, ptr %58, i32 0, i32 3
  %60 = load i32, ptr %59, align 4, !tbaa !115
  %61 = sub i32 %60, %57
  store i32 %61, ptr %59, align 4, !tbaa !115
  %62 = load i32, ptr %9, align 4, !tbaa !38
  %63 = load i32, ptr %8, align 4, !tbaa !38
  %64 = sub i32 %62, %63
  %65 = load ptr, ptr %3, align 8, !tbaa !58
  %66 = getelementptr inbounds nuw %struct.RangeCoder, ptr %65, i32 0, i32 2
  store i32 %64, ptr %66, align 8, !tbaa !118
  %67 = load ptr, ptr %3, align 8, !tbaa !58
  %68 = getelementptr inbounds nuw %struct.RangeCoder, ptr %67, i32 0, i32 2
  %69 = load i32, ptr %68, align 8, !tbaa !118
  %70 = icmp ult i32 %69, 16777216
  br i1 %70, label %71, label %73

71:                                               ; preds = %56
  %72 = load ptr, ptr %3, align 8, !tbaa !58
  call void @rac_normalise(ptr noundef %72)
  br label %73

73:                                               ; preds = %71, %56
  %74 = load ptr, ptr %4, align 8, !tbaa !74
  %75 = load i32, ptr %5, align 4, !tbaa !38
  call void @model_update(ptr noundef %74, i32 noundef %75)
  %76 = load i32, ptr %5, align 4, !tbaa !38
  call void @llvm.lifetime.end.p0(i64 4, ptr %10) #8
  call void @llvm.lifetime.end.p0(i64 4, ptr %9) #8
  call void @llvm.lifetime.end.p0(i64 4, ptr %8) #8
  call void @llvm.lifetime.end.p0(i64 4, ptr %7) #8
  call void @llvm.lifetime.end.p0(i64 4, ptr %6) #8
  call void @llvm.lifetime.end.p0(i64 4, ptr %5) #8
  ret i32 %76
}