; Function Attrs: nofree norecurse nosync nounwind memory(read, argmem: readwrite, inaccessiblemem: none) uwtable
define internal fastcc range(i32 -1073741824, 1073741824) i32 @rac_get_model_sym(ptr noundef captures(none) %0, ptr noundef captures(none) %1) unnamed_addr #6 {
  %3 = getelementptr inbounds nuw i8, ptr %0, i64 16
  %4 = load i32, ptr %3, align 8, !tbaa !61
  %5 = lshr i32 %4, 15
  store i32 %5, ptr %3, align 8, !tbaa !61
  %6 = getelementptr inbounds nuw i8, ptr %1, i64 128
  %7 = load i32, ptr %6, align 4, !tbaa !73
  %8 = ashr i32 %7, 1
  %9 = getelementptr inbounds nuw i8, ptr %1, i64 64
  %10 = getelementptr inbounds nuw i8, ptr %0, i64 20
  %11 = load i32, ptr %10, align 4, !tbaa !59
  br label %12

12:                                               ; preds = %12, %2
  %.032 = phi i32 [ %8, %2 ], [ %18, %12 ]
  %.030 = phi i32 [ %7, %2 ], [ %.032..030, %12 ]
  %.028 = phi i32 [ 0, %2 ], [ %.028., %12 ]
  %.026 = phi i32 [ %4, %2 ], [ %..026, %12 ]
  %.0 = phi i32 [ 0, %2 ], [ %.0..032, %12 ]
  %13 = sext i32 %.032 to i64
  %14 = getelementptr inbounds [16 x i32], ptr %9, i64 0, i64 %13
  %15 = load i32, ptr %14, align 4, !tbaa !56
  %16 = mul i32 %15, %5
  %.not = icmp ugt i32 %16, %11
  %.032..030 = select i1 %.not, i32 %.032, i32 %.030
  %.028. = select i1 %.not, i32 %.028, i32 %16
  %..026 = select i1 %.not, i32 %16, i32 %.026
  %.0..032 = select i1 %.not, i32 %.0, i32 %.032
  %17 = add nsw i32 %.032..030, %.0..032
  %18 = ashr i32 %17, 1
  %.not36 = icmp eq i32 %18, %.0..032
  br i1 %.not36, label %19, label %12, !llvm.loop !108

19:                                               ; preds = %12
  %20 = sub i32 %11, %.028.
  store i32 %20, ptr %10, align 4, !tbaa !59
  %21 = sub i32 %..026, %.028.
  store i32 %21, ptr %3, align 8, !tbaa !61
  %22 = icmp ult i32 %21, 16777216
  br i1 %22, label %23, label %rac_normalise.exit

23:                                               ; preds = %19
  %24 = getelementptr inbounds nuw i8, ptr %0, i64 8
  %25 = load ptr, ptr %24, align 8, !tbaa !58
  %.promoted15.i = load ptr, ptr %0, align 8, !tbaa !57
  %26 = getelementptr inbounds nuw i8, ptr %0, i64 24
  br label %27

27:                                               ; preds = %46, %23
  %28 = phi ptr [ %42, %46 ], [ %.promoted15.i, %23 ]
  %29 = phi i32 [ %47, %46 ], [ %20, %23 ]
  %30 = phi i32 [ %31, %46 ], [ %21, %23 ]
  %31 = shl nuw i32 %30, 8
  store i32 %31, ptr %3, align 8, !tbaa !61
  %32 = shl i32 %29, 8
  store i32 %32, ptr %10, align 4, !tbaa !59
  %33 = icmp ult ptr %28, %25
  br i1 %33, label %34, label %39

34:                                               ; preds = %27
  %35 = getelementptr inbounds nuw i8, ptr %28, i64 1
  store ptr %35, ptr %0, align 8, !tbaa !57
  %36 = load i8, ptr %28, align 1, !tbaa !49
  %37 = zext i8 %36 to i32
  %38 = or disjoint i32 %32, %37
  br label %.sink.split.i

39:                                               ; preds = %27
  %.not.i = icmp eq i32 %32, 0
  br i1 %.not.i, label %40, label %41

40:                                               ; preds = %39
  store i32 1, ptr %26, align 8, !tbaa !62
  br label %.sink.split.i

.sink.split.i:                                    ; preds = %40, %34
  %.sink.i = phi i32 [ 1, %40 ], [ %38, %34 ]
  %.ph.i = phi ptr [ %28, %40 ], [ %35, %34 ]
  store i32 %.sink.i, ptr %10, align 4, !tbaa !59
  br label %41

41:                                               ; preds = %.sink.split.i, %39
  %42 = phi ptr [ %28, %39 ], [ %.ph.i, %.sink.split.i ]
  %43 = phi i32 [ %32, %39 ], [ %.sink.i, %.sink.split.i ]
  %44 = icmp ugt i32 %43, %31
  br i1 %44, label %45, label %46

45:                                               ; preds = %41
  store i32 1, ptr %26, align 8, !tbaa !62
  store i32 1, ptr %10, align 4, !tbaa !59
  br label %46

46:                                               ; preds = %45, %41
  %47 = phi i32 [ 1, %45 ], [ %43, %41 ]
  %48 = icmp ugt i32 %30, 65535
  br i1 %48, label %rac_normalise.exit, label %27

rac_normalise.exit:                               ; preds = %46, %19
  %49 = sext i32 %.0..032 to i64
  %50 = getelementptr inbounds [16 x i32], ptr %1, i64 0, i64 %49
  %51 = load i32, ptr %50, align 4, !tbaa !56
  %52 = add nsw i32 %51, 1
  store i32 %52, ptr %50, align 4, !tbaa !56
  %53 = getelementptr inbounds nuw i8, ptr %1, i64 144
  %54 = load i32, ptr %53, align 4, !tbaa !87
  %55 = add nsw i32 %54, -1
  store i32 %55, ptr %53, align 4, !tbaa !87
  %.not.i37 = icmp eq i32 %55, 0
  br i1 %.not.i37, label %56, label %model_update.exit

56:                                               ; preds = %rac_normalise.exit
  %57 = getelementptr inbounds nuw i8, ptr %1, i64 136
  %58 = load i32, ptr %57, align 4, !tbaa !86
  %59 = getelementptr inbounds nuw i8, ptr %1, i64 132
  %60 = load i32, ptr %59, align 4, !tbaa !84
  %61 = add nsw i32 %60, %58
  store i32 %61, ptr %59, align 4, !tbaa !84
  %62 = icmp sgt i32 %61, 32768
  br i1 %62, label %63, label %..loopexit_crit_edge.i

..loopexit_crit_edge.i:                           ; preds = %56
  %.pre.i = load i32, ptr %6, align 4, !tbaa !73
  br label %.loopexit.i

63:                                               ; preds = %56
  store i32 0, ptr %59, align 4, !tbaa !84
  %64 = load i32, ptr %6, align 4, !tbaa !73
  %65 = icmp sgt i32 %64, 0
  br i1 %65, label %.lr.ph.i, label %._crit_edge.i

.lr.ph.i:                                         ; preds = %63, %.lr.ph.i
  %indvars.iv.i = phi i64 [ %indvars.iv.next.i, %.lr.ph.i ], [ 0, %63 ]
  %66 = getelementptr inbounds nuw [16 x i32], ptr %1, i64 0, i64 %indvars.iv.i
  %67 = load i32, ptr %66, align 4, !tbaa !56
  %68 = add nsw i32 %67, 1
  %69 = ashr i32 %68, 1
  store i32 %69, ptr %66, align 4, !tbaa !56
  %70 = load i32, ptr %59, align 4, !tbaa !84
  %71 = add nsw i32 %70, %69
  store i32 %71, ptr %59, align 4, !tbaa !84
  %indvars.iv.next.i = add nuw nsw i64 %indvars.iv.i, 1
  %72 = load i32, ptr %6, align 4, !tbaa !73
  %73 = sext i32 %72 to i64
  %74 = icmp slt i64 %indvars.iv.next.i, %73
  br i1 %74, label %.lr.ph.i, label %.loopexit.i, !llvm.loop !88

.loopexit.i:                                      ; preds = %.lr.ph.i, %..loopexit_crit_edge.i
  %75 = phi i32 [ %.pre.i, %..loopexit_crit_edge.i ], [ %72, %.lr.ph.i ]
  %76 = phi i32 [ %61, %..loopexit_crit_edge.i ], [ %71, %.lr.ph.i ]
  %77 = udiv i32 -2147483648, %76
  %78 = icmp sgt i32 %75, 0
  br i1 %78, label %.lr.ph41.i, label %._crit_edge.i

.lr.ph41.i:                                       ; preds = %.loopexit.i, %.lr.ph41.i
  %indvars.iv43.i = phi i64 [ %indvars.iv.next44.i, %.lr.ph41.i ], [ 0, %.loopexit.i ]
  %.03639.i = phi i32 [ %84, %.lr.ph41.i ], [ 0, %.loopexit.i ]
  %79 = mul i32 %.03639.i, %77
  %80 = lshr i32 %79, 16
  %81 = getelementptr inbounds nuw [16 x i32], ptr %9, i64 0, i64 %indvars.iv43.i
  store i32 %80, ptr %81, align 4, !tbaa !56
  %82 = getelementptr inbounds nuw [16 x i32], ptr %1, i64 0, i64 %indvars.iv43.i
  %83 = load i32, ptr %82, align 4, !tbaa !56
  %84 = add nsw i32 %83, %.03639.i
  %indvars.iv.next44.i = add nuw nsw i64 %indvars.iv43.i, 1
  %85 = load i32, ptr %6, align 4, !tbaa !73
  %86 = sext i32 %85 to i64
  %87 = icmp slt i64 %indvars.iv.next44.i, %86
  br i1 %87, label %.lr.ph41.i, label %._crit_edge.i, !llvm.loop !89

._crit_edge.i:                                    ; preds = %.lr.ph41.i, %.loopexit.i, %63
  %88 = load i32, ptr %57, align 4, !tbaa !86
  %89 = ashr i32 %88, 2
  %90 = add nsw i32 %89, %88
  %91 = getelementptr inbounds nuw i8, ptr %1, i64 140
  %92 = load i32, ptr %91, align 4, !tbaa !74
  %spec.store.select.i = tail call i32 @llvm.smin.i32(i32 %90, i32 %92)
  store i32 %spec.store.select.i, ptr %57, align 4
  store i32 %spec.store.select.i, ptr %53, align 4, !tbaa !87
  br label %model_update.exit

model_update.exit:                                ; preds = %rac_normalise.exit, %._crit_edge.i
  ret i32 %.0..032
}